target datalayout = "e-m:e-p270:32:32-p271:32:32-p272:64:64-i64:64-i128:128-f80:128-n8:16:32:64-S128"
target triple = "x86_64-pc-linux-gnu"

%struct.H5FL_reg_head_t = type { i8, i32, i32, ptr, i64, ptr }
%struct.H5O_common_cache_ud_t = type { ptr, i32, i32, ptr, i64 }
%struct.H5O_t = type { %struct.H5C_cache_entry_t, i64, i64, i8, i64, i8, i32, i8, i8, i64, i64, i64, i64, i32, i32, i64, i64, ptr, i64, i64, i64, i64, ptr, i8, ptr }
%struct.H5C_cache_entry_t = type { ptr, i64, i64, ptr, i8, ptr, i8, i8, i8, i8, i32, i8, i8, i8, i8, i8, i32, ptr, i32, i32, i32, i32, i32, i8, i8, ptr, ptr, ptr, ptr, ptr, ptr, i8, i32, i8, i64, ptr, i64, i64, i32, i8, i32, i32, i8, ptr, ptr, ptr }
%struct.H5O_chk_cache_ud_t = type { i8, ptr, i32, i64, %struct.H5O_common_cache_ud_t }
%struct.H5O_chunk_proxy_t = type { %struct.H5C_cache_entry_t, ptr, ptr, i32, ptr }

@H5O_init_g = external global i8, align 1
@H5_libterm_g = external global i8, align 1
@.str.3 = private unnamed_addr constant [102 x i8] c"generated/home/dtcxzyw/WorkSpace/Projects/compilers/llvm-opt-benchmark/bench/hdf5/hdf5/src/H5Ocache.c\00", align 1
@H5E_OHDR_g = external global i64, align 8
@H5E_CANTRELEASE_g = external global i64, align 8
@H5E_CANTALLOC_g = external global i64, align 8
@.str.6 = private unnamed_addr constant [25 x i8] c"memory allocation failed\00", align 1
@H5E_CANTINIT_g = external global i64, align 8
@H5_H5O_chunk_proxy_t_reg_free_list = external global %struct.H5FL_reg_head_t, align 8
@__func__.H5O__cache_chk_deserialize = private unnamed_addr constant [27 x i8] c"H5O__cache_chk_deserialize\00", align 1
@.str.42 = private unnamed_addr constant [38 x i8] c"can't deserialize object header chunk\00", align 1
@H5E_CANTINC_g = external global i64, align 8
@.str.43 = private unnamed_addr constant [49 x i8] c"can't increment reference count on object header\00", align 1
@.str.44 = private unnamed_addr constant [38 x i8] c"unable to destroy object header chunk\00", align 1

; Function Attrs: nounwind uwtable
define internal ptr @H5O__cache_chk_deserialize(ptr noundef %0, i64 noundef %1, ptr noundef %2, ptr noundef %3) #0 {
  %5 = alloca ptr, align 8
  %6 = alloca i64, align 8
  %7 = alloca ptr, align 8
  %8 = alloca ptr, align 8
  %9 = alloca ptr, align 8
  %10 = alloca ptr, align 8
  %11 = alloca ptr, align 8
  %12 = alloca i8, align 1
  store ptr %0, ptr %5, align 8, !tbaa !3
  store i64 %1, ptr %6, align 8, !tbaa !13
  store ptr %2, ptr %7, align 8, !tbaa !3
  store ptr %3, ptr %8, align 8, !tbaa !41
  call void @llvm.lifetime.start.p0(i64 8, ptr %9) #7
  store ptr null, ptr %9, align 8, !tbaa !79
  call void @llvm.lifetime.start.p0(i64 8, ptr %10) #7
  %13 = load ptr, ptr %7, align 8, !tbaa !3
  store ptr %13, ptr %10, align 8, !tbaa !74
  call void @llvm.lifetime.start.p0(i64 8, ptr %11) #7
  store ptr null, ptr %11, align 8, !tbaa !3
  call void @llvm.lifetime.start.p0(i64 1, ptr %12) #7
  store i8 0, ptr %12, align 1, !tbaa !9
  %14 = load i8, ptr @H5O_init_g, align 1, !tbaa !9, !range !11, !noundef !12
  %15 = trunc i8 %14 to i1
  br i1 %15, label %20, label %16

16:                                               ; preds = %4
  %17 = load i8, ptr @H5_libterm_g, align 1, !tbaa !9, !range !11, !noundef !12
  %18 = trunc i8 %17 to i1
  %19 = xor i1 %18, true
  br label %20

20:                                               ; preds = %16, %4
  %21 = phi i1 [ true, %4 ], [ %19, %16 ]
  %22 = xor i1 %21, true
  %23 = xor i1 %22, true
  %24 = zext i1 %23 to i32
  %25 = sext i32 %24 to i64
  %26 = call i64 @llvm.expect.i64(i64 %25, i64 1)
  %27 = icmp ne i64 %26, 0
  br i1 %27, label %28, label %171

28:                                               ; preds = %20
  %29 = call noalias ptr @H5FL_reg_calloc(ptr noundef @H5_H5O_chunk_proxy_t_reg_free_list)
  store ptr %29, ptr %9, align 8, !tbaa !79
  %30 = icmp eq ptr null, %29
  br i1 %30, label %31, label %50

31:                                               ; preds = %28
  br label %32

32:                                               ; preds = %31
  br label %33

33:                                               ; preds = %32
  br label %34

34:                                               ; preds = %33
  %35 = load i64, ptr @H5E_OHDR_g, align 8, !tbaa !13
  %36 = load i64, ptr @H5E_CANTALLOC_g, align 8, !tbaa !13
  %37 = call i32 (ptr, ptr, i32, i64, i64, ptr, ...) @H5E_printf_stack(ptr noundef @.str.3, ptr noundef @__func__.H5O__cache_chk_deserialize, i32 noundef 678, i64 noundef %35, i64 noundef %36, ptr noundef @.str.6)
  br label %38

38:                                               ; preds = %34
  br label %39

39:                                               ; preds = %38
  store i8 1, ptr %12, align 1, !tbaa !9
  %40 = load i8, ptr %12, align 1, !tbaa !9, !range !11, !noundef !12
  %41 = trunc i8 %40 to i1
  %42 = zext i1 %41 to i8
  store i8 %42, ptr %12, align 1, !tbaa !9
  br label %43

43:                                               ; preds = %39
  br label %44

44:                                               ; preds = %43
  br label %45

45:                                               ; preds = %44
  store ptr null, ptr %11, align 8, !tbaa !3
  br label %143

46:                                               ; No predecessors!
  br label %47

47:                                               ; preds = %46
  br label %48

48:                                               ; preds = %47
  br label %49

49:                                               ; preds = %48
  br label %50

50:                                               ; preds = %49, %28
  %51 = load ptr, ptr %10, align 8, !tbaa !74
  %52 = getelementptr inbounds nuw %struct.H5O_chk_cache_ud_t, ptr %51, i32 0, i32 0
  %53 = load i8, ptr %52, align 8, !tbaa !80, !range !11, !noundef !12
  %54 = trunc i8 %53 to i1
  br i1 %54, label %55, label %105

55:                                               ; preds = %50
  %56 = load ptr, ptr %10, align 8, !tbaa !74
  %57 = getelementptr inbounds nuw %struct.H5O_chk_cache_ud_t, ptr %56, i32 0, i32 1
  %58 = load ptr, ptr %57, align 8, !tbaa !78
  %59 = load ptr, ptr %10, align 8, !tbaa !74
  %60 = getelementptr inbounds nuw %struct.H5O_chk_cache_ud_t, ptr %59, i32 0, i32 4
  %61 = getelementptr inbounds nuw %struct.H5O_common_cache_ud_t, ptr %60, i32 0, i32 4
  %62 = load i64, ptr %61, align 8, !tbaa !81
  %63 = load ptr, ptr %10, align 8, !tbaa !74
  %64 = getelementptr inbounds nuw %struct.H5O_chk_cache_ud_t, ptr %63, i32 0, i32 3
  %65 = load i64, ptr %64, align 8, !tbaa !76
  %66 = load ptr, ptr %5, align 8, !tbaa !3
  %67 = load i64, ptr %6, align 8, !tbaa !13
  %68 = load ptr, ptr %10, align 8, !tbaa !74
  %69 = getelementptr inbounds nuw %struct.H5O_chk_cache_ud_t, ptr %68, i32 0, i32 4
  %70 = load ptr, ptr %8, align 8, !tbaa !41
  %71 = call i32 @H5O__chunk_deserialize(ptr noundef %58, i64 noundef %62, i64 noundef %65, ptr noundef %66, i64 noundef %67, ptr noundef %69, ptr noundef %70)
  %72 = icmp slt i32 %71, 0
  br i1 %72, label %73, label %92

73:                                               ; preds = %55
  br label %74

74:                                               ; preds = %73
  br label %75

75:                                               ; preds = %74
  br label %76

76:                                               ; preds = %75
  %77 = load i64, ptr @H5E_OHDR_g, align 8, !tbaa !13
  %78 = load i64, ptr @H5E_CANTINIT_g, align 8, !tbaa !13
  %79 = call i32 (ptr, ptr, i32, i64, i64, ptr, ...) @H5E_printf_stack(ptr noundef @.str.3, ptr noundef @__func__.H5O__cache_chk_deserialize, i32 noundef 689, i64 noundef %77, i64 noundef %78, ptr noundef @.str.42)
  br label %80

80:                                               ; preds = %76
  br label %81

81:                                               ; preds = %80
  store i8 1, ptr %12, align 1, !tbaa !9
  %82 = load i8, ptr %12, align 1, !tbaa !9, !range !11, !noundef !12
  %83 = trunc i8 %82 to i1
  %84 = zext i1 %83 to i8
  store i8 %84, ptr %12, align 1, !tbaa !9
  br label %85

85:                                               ; preds = %81
  br label %86

86:                                               ; preds = %85
  br label %87

87:                                               ; preds = %86
  store ptr null, ptr %11, align 8, !tbaa !3
  br label %143

88:                                               ; No predecessors!
  br label %89

89:                                               ; preds = %88
  br label %90

90:                                               ; preds = %89
  br label %91

91:                                               ; preds = %90
  br label %92

92:                                               ; preds = %91, %55
  br label %93

93:                                               ; preds = %92
  %94 = load ptr, ptr %10, align 8, !tbaa !74
  %95 = getelementptr inbounds nuw %struct.H5O_chk_cache_ud_t, ptr %94, i32 0, i32 1
  %96 = load ptr, ptr %95, align 8, !tbaa !78
  %97 = getelementptr inbounds nuw %struct.H5O_t, ptr %96, i32 0, i32 20
  %98 = load i64, ptr %97, align 8, !tbaa !82
  %99 = sub i64 %98, 1
  %100 = trunc i64 %99 to i32
  %101 = load ptr, ptr %9, align 8, !tbaa !79
  %102 = getelementptr inbounds nuw %struct.H5O_chunk_proxy_t, ptr %101, i32 0, i32 3
  store i32 %100, ptr %102, align 8, !tbaa !83
  br label %103

103:                                              ; preds = %93
  br label %104

104:                                              ; preds = %103
  br label %111

105:                                              ; preds = %50
  %106 = load ptr, ptr %10, align 8, !tbaa !74
  %107 = getelementptr inbounds nuw %struct.H5O_chk_cache_ud_t, ptr %106, i32 0, i32 2
  %108 = load i32, ptr %107, align 8, !tbaa !85
  %109 = load ptr, ptr %9, align 8, !tbaa !79
  %110 = getelementptr inbounds nuw %struct.H5O_chunk_proxy_t, ptr %109, i32 0, i32 3
  store i32 %108, ptr %110, align 8, !tbaa !83
  br label %111

111:                                              ; preds = %105, %104
  %112 = load ptr, ptr %10, align 8, !tbaa !74
  %113 = getelementptr inbounds nuw %struct.H5O_chk_cache_ud_t, ptr %112, i32 0, i32 1
  %114 = load ptr, ptr %113, align 8, !tbaa !78
  %115 = call i32 @H5O__inc_rc(ptr noundef %114)
  %116 = icmp slt i32 %115, 0
  br i1 %116, label %117, label %136

117:                                              ; preds = %111
  br label %118

118:                                              ; preds = %117
  br label %119

119:                                              ; preds = %118
  br label %120

120:                                              ; preds = %119
  %121 = load i64, ptr @H5E_OHDR_g, align 8, !tbaa !13
  %122 = load i64, ptr @H5E_CANTINC_g, align 8, !tbaa !13
  %123 = call i32 (ptr, ptr, i32, i64, i64, ptr, ...) @H5E_printf_stack(ptr noundef @.str.3, ptr noundef @__func__.H5O__cache_chk_deserialize, i32 noundef 710, i64 noundef %121, i64 noundef %122, ptr noundef @.str.43)
  br label %124

124:                                              ; preds = %120
  br label %125

125:                                              ; preds = %124
  store i8 1, ptr %12, align 1, !tbaa !9
  %126 = load i8, ptr %12, align 1, !tbaa !9, !range !11, !noundef !12
  %127 = trunc i8 %126 to i1
  %128 = zext i1 %127 to i8
  store i8 %128, ptr %12, align 1, !tbaa !9
  br label %129

129:                                              ; preds = %125
  br label %130

130:                                              ; preds = %129
  br label %131

131:                                              ; preds = %130
  store ptr null, ptr %11, align 8, !tbaa !3
  br label %143

132:                                              ; No predecessors!
  br label %133

133:                                              ; preds = %132
  br label %134

134:                                              ; preds = %133
  br label %135

135:                                              ; preds = %134
  br label %136

136:                                              ; preds = %135, %111
  %137 = load ptr, ptr %10, align 8, !tbaa !74
  %138 = getelementptr inbounds nuw %struct.H5O_chk_cache_ud_t, ptr %137, i32 0, i32 1
  %139 = load ptr, ptr %138, align 8, !tbaa !78
  %140 = load ptr, ptr %9, align 8, !tbaa !79
  %141 = getelementptr inbounds nuw %struct.H5O_chunk_proxy_t, ptr %140, i32 0, i32 2
  store ptr %139, ptr %141, align 8, !tbaa !86
  %142 = load ptr, ptr %9, align 8, !tbaa !79
  store ptr %142, ptr %11, align 8, !tbaa !3
  br label %143

143:                                              ; preds = %136, %131, %87, %45
  %144 = load ptr, ptr %11, align 8, !tbaa !3
  %145 = icmp eq ptr null, %144
  br i1 %145, label %146, label %170

146:                                              ; preds = %143
  %147 = load ptr, ptr %9, align 8, !tbaa !79
  %148 = icmp ne ptr %147, null
  br i1 %148, label %149, label %169

149:                                              ; preds = %146
  %150 = load ptr, ptr %9, align 8, !tbaa !79
  %151 = call i32 @H5O__chunk_dest(ptr noundef %150)
  %152 = icmp slt i32 %151, 0
  br i1 %152, label %153, label %169

153:                                              ; preds = %149
  br label %154

154:                                              ; preds = %153
  br label %155

155:                                              ; preds = %154
  br label %156

156:                                              ; preds = %155
  %157 = load i64, ptr @H5E_OHDR_g, align 8, !tbaa !13
  %158 = load i64, ptr @H5E_CANTRELEASE_g, align 8, !tbaa !13
  %159 = call i32 (ptr, ptr, i32, i64, i64, ptr, ...) @H5E_printf_stack(ptr noundef @.str.3, ptr noundef @__func__.H5O__cache_chk_deserialize, i32 noundef 719, i64 noundef %157, i64 noundef %158, ptr noundef @.str.44)
  br label %160

160:                                              ; preds = %156
  br label %161

161:                                              ; preds = %160
  store i8 1, ptr %12, align 1, !tbaa !9
  %162 = load i8, ptr %12, align 1, !tbaa !9, !range !11, !noundef !12
  %163 = trunc i8 %162 to i1
  %164 = zext i1 %163 to i8
  store i8 %164, ptr %12, align 1, !tbaa !9
  br label %165

165:                                              ; preds = %161
  br label %166

166:                                              ; preds = %165
  store ptr null, ptr %11, align 8, !tbaa !3
  br label %167

167:                                              ; preds = %166
  br label %168

168:                                              ; preds = %167
  br label %169

169:                                              ; preds = %168, %149, %146
  br label %170

170:                                              ; preds = %169, %143
  br label %171

171:                                              ; preds = %170, %20
  %172 = load ptr, ptr %11, align 8, !tbaa !3
  call void @llvm.lifetime.end.p0(i64 1, ptr %12) #7
  call void @llvm.lifetime.end.p0(i64 8, ptr %11) #7
  call void @llvm.lifetime.end.p0(i64 8, ptr %10) #7
  call void @llvm.lifetime.end.p0(i64 8, ptr %9) #7
  ret ptr %172
}