; Function Attrs: nounwind uwtable
define internal ptr @H5O__cache_chk_deserialize(ptr noundef readonly captures(none) %0, i64 noundef %1, ptr noundef captures(none) %2, ptr noundef writeonly captures(none) %3) #1 {
  %5 = load i8, ptr @H5O_init_g, align 1, !tbaa !3, !range !7, !noundef !8
  %6 = trunc nuw i8 %5 to i1
  %7 = load i8, ptr @H5_libterm_g, align 1, !range !7
  %8 = trunc nuw i8 %7 to i1
  %9 = xor i1 %8, true
  %10 = select i1 %6, i1 true, i1 %9
  br i1 %10, label %11, label %.thread, !prof !9

11:                                               ; preds = %4
  %12 = tail call noalias ptr @H5FL_reg_calloc(ptr noundef nonnull @H5_H5O_chunk_proxy_t_reg_free_list) #9
  %13 = icmp eq ptr %12, null
  br i1 %13, label %14, label %18

14:                                               ; preds = %11
  %15 = load i64, ptr @H5E_OHDR_g, align 8, !tbaa !10
  %16 = load i64, ptr @H5E_CANTALLOC_g, align 8, !tbaa !10
  %17 = tail call i32 (ptr, ptr, i32, i64, i64, ptr, ...) @H5E_printf_stack(ptr noundef nonnull @.str.3, ptr noundef nonnull @__func__.H5O__cache_chk_deserialize, i32 noundef 678, i64 noundef %15, i64 noundef %16, ptr noundef nonnull @.str.6) #9
  br label %.thread

18:                                               ; preds = %11
  %19 = load i8, ptr %2, align 8, !tbaa !68, !range !7, !noundef !8
  %20 = trunc nuw i8 %19 to i1
  br i1 %20, label %21, label %42

21:                                               ; preds = %18
  %22 = getelementptr inbounds nuw i8, ptr %2, i64 8
  %23 = load ptr, ptr %22, align 8, !tbaa !67
  %24 = getelementptr inbounds nuw i8, ptr %2, i64 32
  %25 = getelementptr inbounds nuw i8, ptr %2, i64 56
  %26 = load i64, ptr %25, align 8, !tbaa !69
  %27 = getelementptr inbounds nuw i8, ptr %2, i64 24
  %28 = load i64, ptr %27, align 8, !tbaa !65
  %29 = tail call fastcc i32 @H5O__chunk_deserialize(ptr noundef %23, i64 noundef %26, i64 noundef %28, ptr noundef %0, i64 noundef %1, ptr noundef nonnull %24, ptr noundef %3)
  %30 = icmp slt i32 %29, 0
  br i1 %30, label %31, label %35

31:                                               ; preds = %21
  %32 = load i64, ptr @H5E_OHDR_g, align 8, !tbaa !10
  %33 = load i64, ptr @H5E_CANTINIT_g, align 8, !tbaa !10
  %34 = tail call i32 (ptr, ptr, i32, i64, i64, ptr, ...) @H5E_printf_stack(ptr noundef nonnull @.str.3, ptr noundef nonnull @__func__.H5O__cache_chk_deserialize, i32 noundef 689, i64 noundef %32, i64 noundef %33, ptr noundef nonnull @.str.42) #9
  br label %58

35:                                               ; preds = %21
  %36 = load ptr, ptr %22, align 8, !tbaa !67
  %37 = getelementptr inbounds nuw i8, ptr %36, i64 376
  %38 = load i64, ptr %37, align 8, !tbaa !70
  %39 = trunc i64 %38 to i32
  %40 = add i32 %39, -1
  %41 = getelementptr inbounds nuw i8, ptr %12, i64 264
  store i32 %40, ptr %41, align 8, !tbaa !71
  br label %46

42:                                               ; preds = %18
  %43 = getelementptr inbounds nuw i8, ptr %2, i64 16
  %44 = load i32, ptr %43, align 8, !tbaa !73
  %45 = getelementptr inbounds nuw i8, ptr %12, i64 264
  store i32 %44, ptr %45, align 8, !tbaa !71
  %.phi.trans.insert = getelementptr inbounds nuw i8, ptr %2, i64 8
  %.pre = load ptr, ptr %.phi.trans.insert, align 8, !tbaa !67
  br label %46

46:                                               ; preds = %42, %35
  %47 = phi ptr [ %.pre, %42 ], [ %36, %35 ]
  %48 = tail call i32 @H5O__inc_rc(ptr noundef %47) #9
  %49 = icmp slt i32 %48, 0
  br i1 %49, label %50, label %54

50:                                               ; preds = %46
  %51 = load i64, ptr @H5E_OHDR_g, align 8, !tbaa !10
  %52 = load i64, ptr @H5E_CANTINC_g, align 8, !tbaa !10
  %53 = tail call i32 (ptr, ptr, i32, i64, i64, ptr, ...) @H5E_printf_stack(ptr noundef nonnull @.str.3, ptr noundef nonnull @__func__.H5O__cache_chk_deserialize, i32 noundef 710, i64 noundef %51, i64 noundef %52, ptr noundef nonnull @.str.43) #9
  br label %58

54:                                               ; preds = %46
  %55 = getelementptr inbounds nuw i8, ptr %2, i64 8
  %56 = load ptr, ptr %55, align 8, !tbaa !67
  %57 = getelementptr inbounds nuw i8, ptr %12, i64 256
  store ptr %56, ptr %57, align 8, !tbaa !74
  br label %.thread

58:                                               ; preds = %31, %50
  %59 = tail call i32 @H5O__chunk_dest(ptr noundef nonnull %12) #9
  %60 = icmp slt i32 %59, 0
  br i1 %60, label %61, label %.thread

61:                                               ; preds = %58
  %62 = load i64, ptr @H5E_OHDR_g, align 8, !tbaa !10
  %63 = load i64, ptr @H5E_CANTRELEASE_g, align 8, !tbaa !10
  %64 = tail call i32 (ptr, ptr, i32, i64, i64, ptr, ...) @H5E_printf_stack(ptr noundef nonnull @.str.3, ptr noundef nonnull @__func__.H5O__cache_chk_deserialize, i32 noundef 719, i64 noundef %62, i64 noundef %63, ptr noundef nonnull @.str.44) #9
  br label %.thread

.thread:                                          ; preds = %14, %54, %61, %58, %4
  %.0 = phi ptr [ null, %61 ], [ null, %58 ], [ null, %4 ], [ %12, %54 ], [ null, %14 ]
  ret ptr %.0
}